target datalayout = "e-m:e-p270:32:32-p271:32:32-p272:64:64-i64:64-i128:128-f80:128-n8:16:32:64-S128"
target triple = "x86_64-pc-linux-gnu"

%struct.ObjectAddress = type { i32, i32, i32 }
%struct.nameData = type { [64 x i8] }
%struct.FormData_pg_type = type { i32, %struct.nameData, i32, i32, i16, i8, i8, i8, i8, i8, i8, i32, i32, i32, i32, i32, i32, i32, i32, i32, i32, i32, i8, i8, i8, i32, i32, i32, i32 }
%struct.HeapTupleData = type { i32, %struct.ItemPointerData, i32, ptr }
%struct.ItemPointerData = type { %struct.BlockIdData, i16 }
%struct.BlockIdData = type { i16, i16 }
%struct.HeapTupleHeaderData = type { %union.anon, %struct.ItemPointerData, i16, i16, i8, [0 x i8] }
%union.anon = type { %struct.HeapTupleFields }
%struct.HeapTupleFields = type { i32, i32, %union.anon.0 }
%union.anon.0 = type { i32 }

@.str.1 = private unnamed_addr constant [16 x i8] c"objectaddress.c\00", align 1
@.str.181 = private unnamed_addr constant [25 x i8] c"type \22%s\22 does not exist\00", align 1
@__func__.get_object_address_type = private unnamed_addr constant [24 x i8] c"get_object_address_type\00", align 1
@.str.182 = private unnamed_addr constant [21 x i8] c"\22%s\22 is not a domain\00", align 1

; Function Attrs: inlinehint nounwind uwtable
define internal ptr @GETSTRUCT(ptr noundef %0) #4 {
  %2 = alloca ptr, align 8
  store ptr %0, ptr %2, align 8
  %3 = load ptr, ptr %2, align 8
  %4 = getelementptr inbounds nuw %struct.HeapTupleData, ptr %3, i32 0, i32 3
  %5 = load ptr, ptr %4, align 8
  %6 = load ptr, ptr %2, align 8
  %7 = getelementptr inbounds nuw %struct.HeapTupleData, ptr %6, i32 0, i32 3
  %8 = load ptr, ptr %7, align 8
  %9 = getelementptr inbounds nuw %struct.HeapTupleHeaderData, ptr %8, i32 0, i32 4
  %10 = load i8, ptr %9, align 2
  %11 = zext i8 %10 to i32
  %12 = sext i32 %11 to i64
  %13 = getelementptr inbounds i8, ptr %5, i64 %12
  ret ptr %13
}

; Function Attrs: nounwind uwtable
define internal { i64, i32 } @get_object_address_type(i32 noundef %0, ptr noundef %1, i1 noundef zeroext %2) #0 {
  %4 = alloca %struct.ObjectAddress, align 4
  %5 = alloca i32, align 4
  %6 = alloca ptr, align 8
  %7 = alloca i8, align 1
  %8 = alloca ptr, align 8
  %9 = alloca i32, align 4
  %10 = alloca { i64, i32 }, align 8
  store i32 %0, ptr %5, align 4
  store ptr %1, ptr %6, align 8
  %11 = zext i1 %2 to i8
  store i8 %11, ptr %7, align 1
  call void @llvm.lifetime.start.p0(i64 8, ptr %8) #10
  %12 = getelementptr inbounds nuw %struct.ObjectAddress, ptr %4, i32 0, i32 0
  store i32 1247, ptr %12, align 4
  %13 = getelementptr inbounds nuw %struct.ObjectAddress, ptr %4, i32 0, i32 1
  store i32 0, ptr %13, align 4
  %14 = getelementptr inbounds nuw %struct.ObjectAddress, ptr %4, i32 0, i32 2
  store i32 0, ptr %14, align 4
  %15 = load ptr, ptr %6, align 8
  %16 = load i8, ptr %7, align 1, !range !4, !noundef !5
  %17 = trunc i8 %16 to i1
  %18 = call ptr @LookupTypeName(ptr noundef null, ptr noundef %15, ptr noundef null, i1 noundef zeroext %17)
  store ptr %18, ptr %8, align 8
  %19 = load ptr, ptr %8, align 8
  %20 = icmp ne ptr %19, null
  br i1 %20, label %39, label %21

21:                                               ; preds = %3
  %22 = load i8, ptr %7, align 1, !range !4, !noundef !5
  %23 = trunc i8 %22 to i1
  br i1 %23, label %38, label %24

24:                                               ; preds = %21
  br label %25

25:                                               ; preds = %24
  br i1 true, label %26, label %28

26:                                               ; preds = %25
  %27 = call zeroext i1 @errstart_cold(i32 noundef 21, ptr noundef null) #11
  br i1 %27, label %30, label %35

28:                                               ; preds = %25
  %29 = call zeroext i1 @errstart(i32 noundef 21, ptr noundef null)
  br i1 %29, label %30, label %35

30:                                               ; preds = %28, %26
  %31 = call i32 @errcode(i32 noundef 67137668)
  %32 = load ptr, ptr %6, align 8
  %33 = call ptr @TypeNameToString(ptr noundef %32)
  %34 = call i32 (ptr, ...) @errmsg(ptr noundef @.str.181, ptr noundef %33)
  call void @errfinish(ptr noundef @.str.1, i32 noundef 1624, ptr noundef @__func__.get_object_address_type)
  br label %35

35:                                               ; preds = %30, %28, %26
  unreachable

36:                                               ; No predecessors!
  br label %37

37:                                               ; preds = %36
  br label %38

38:                                               ; preds = %37, %21
  store i32 1, ptr %9, align 4
  br label %69

39:                                               ; preds = %3
  %40 = load ptr, ptr %8, align 8
  %41 = call i32 @typeTypeId(ptr noundef %40)
  %42 = getelementptr inbounds nuw %struct.ObjectAddress, ptr %4, i32 0, i32 1
  store i32 %41, ptr %42, align 4
  %43 = load i32, ptr %5, align 4
  %44 = icmp eq i32 %43, 12
  br i1 %44, label %45, label %67

45:                                               ; preds = %39
  %46 = load ptr, ptr %8, align 8
  %47 = call ptr @GETSTRUCT(ptr noundef %46)
  %48 = getelementptr inbounds nuw %struct.FormData_pg_type, ptr %47, i32 0, i32 6
  %49 = load i8, ptr %48, align 1
  %50 = sext i8 %49 to i32
  %51 = icmp ne i32 %50, 100
  br i1 %51, label %52, label %66

52:                                               ; preds = %45
  br label %53

53:                                               ; preds = %52
  br i1 true, label %54, label %56

54:                                               ; preds = %53
  %55 = call zeroext i1 @errstart_cold(i32 noundef 21, ptr noundef null) #11
  br i1 %55, label %58, label %63

56:                                               ; preds = %53
  %57 = call zeroext i1 @errstart(i32 noundef 21, ptr noundef null)
  br i1 %57, label %58, label %63

58:                                               ; preds = %56, %54
  %59 = call i32 @errcode(i32 noundef 151027844)
  %60 = load ptr, ptr %6, align 8
  %61 = call ptr @TypeNameToString(ptr noundef %60)
  %62 = call i32 (ptr, ...) @errmsg(ptr noundef @.str.182, ptr noundef %61)
  call void @errfinish(ptr noundef @.str.1, i32 noundef 1635, ptr noundef @__func__.get_object_address_type)
  br label %63

63:                                               ; preds = %58, %56, %54
  unreachable

64:                                               ; No predecessors!
  br label %65

65:                                               ; preds = %64
  br label %66

66:                                               ; preds = %65, %45
  br label %67

67:                                               ; preds = %66, %39
  %68 = load ptr, ptr %8, align 8
  call void @ReleaseSysCache(ptr noundef %68)
  store i32 1, ptr %9, align 4
  br label %69

69:                                               ; preds = %67, %38
  call void @llvm.lifetime.end.p0(i64 8, ptr %8) #10
  call void @llvm.memcpy.p0.p0.i64(ptr align 8 %10, ptr align 4 %4, i64 12, i1 false)
  %70 = load { i64, i32 }, ptr %10, align 8
  ret { i64, i32 } %70
}