; Function Attrs: nounwind uwtable
define internal fastcc i64 @get_object_address_type(i32 noundef %0, ptr noundef %1, i1 noundef zeroext %2) unnamed_addr #0 {
  %4 = tail call ptr @LookupTypeName(ptr noundef null, ptr noundef %1, ptr noundef null, i1 noundef zeroext %2) #11
  %.not = icmp eq ptr %4, null
  br i1 %.not, label %5, label %11

5:                                                ; preds = %3
  br i1 %2, label %31, label %6

6:                                                ; preds = %5
  %7 = tail call zeroext i1 @errstart_cold(i32 noundef 21, ptr noundef null) #12
  tail call void @llvm.assume(i1 %7)
  %8 = tail call i32 @errcode(i32 noundef 67137668) #11
  %9 = tail call ptr @TypeNameToString(ptr noundef %1) #11
  %10 = tail call i32 (ptr, ...) @errmsg(ptr noundef nonnull @.str.181, ptr noundef %9) #11
  tail call void @errfinish(ptr noundef nonnull @.str.1, i32 noundef 1624, ptr noundef nonnull @__func__.get_object_address_type) #11
  unreachable

11:                                               ; preds = %3
  %12 = tail call i32 @typeTypeId(ptr noundef nonnull %4) #11
  %13 = icmp eq i32 %0, 12
  br i1 %13, label %14, label %27

14:                                               ; preds = %11
  %15 = getelementptr i8, ptr %4, i64 16
  %.val = load ptr, ptr %15, align 8
  %16 = getelementptr inbounds nuw i8, ptr %.val, i64 22
  %17 = load i8, ptr %16, align 2
  %18 = zext i8 %17 to i64
  %19 = getelementptr inbounds nuw i8, ptr %.val, i64 %18
  %20 = getelementptr inbounds nuw i8, ptr %19, i64 79
  %21 = load i8, ptr %20, align 1
  %.not11 = icmp eq i8 %21, 100
  br i1 %.not11, label %27, label %22

22:                                               ; preds = %14
  %23 = tail call zeroext i1 @errstart_cold(i32 noundef 21, ptr noundef null) #12
  tail call void @llvm.assume(i1 %23)
  %24 = tail call i32 @errcode(i32 noundef 151027844) #11
  %25 = tail call ptr @TypeNameToString(ptr noundef %1) #11
  %26 = tail call i32 (ptr, ...) @errmsg(ptr noundef nonnull @.str.182, ptr noundef %25) #11
  tail call void @errfinish(ptr noundef nonnull @.str.1, i32 noundef 1635, ptr noundef nonnull @__func__.get_object_address_type) #11
  unreachable

27:                                               ; preds = %14, %11
  tail call void @ReleaseSysCache(ptr noundef nonnull %4) #11
  %28 = zext i32 %12 to i64
  %29 = shl nuw i64 %28, 32
  %30 = or disjoint i64 %29, 1247
  br label %31

31:                                               ; preds = %5, %27
  %.sroa.210.0 = phi i64 [ %30, %27 ], [ 1247, %5 ]
  ret i64 %.sroa.210.0
}